; Function Attrs: nofree norecurse nounwind memory(readwrite, argmem: none, inaccessiblemem: none) uwtable
define hidden void @_mi_segment_map_freed_at(ptr noundef %0) local_unnamed_addr #5 {
  %2 = icmp ugt ptr %0, inttoptr (i64 21990232555519 to ptr)
  %3 = ptrtoint ptr %0 to i64
  %4 = lshr i64 %3, 32
  %5 = icmp eq i64 %4, 5120
  %6 = or i1 %2, %5
  br i1 %6, label %.loopexit, label %7

7:                                                ; preds = %1
  %8 = lshr i64 %3, 26
  %9 = and i64 %8, 63
  %10 = getelementptr inbounds nuw [5121 x i64], ptr @mi_segment_map, i64 0, i64 %4
  %11 = load atomic i64, ptr %10 monotonic, align 8
  %12 = shl nuw i64 1, %9
  %13 = xor i64 %12, -1
  br label %14

14:                                               ; preds = %14, %7
  %.0 = phi i64 [ %11, %7 ], [ %18, %14 ]
  %15 = and i64 %.0, %13
  %16 = cmpxchg weak ptr %10, i64 %.0, i64 %15 release monotonic, align 8
  %17 = extractvalue { i64, i1 } %16, 1
  %18 = extractvalue { i64, i1 } %16, 0
  br i1 %17, label %.loopexit, label %14, !llvm.loop !30

.loopexit:                                        ; preds = %14, %1
  ret void
}